target datalayout = "e-m:e-p270:32:32-p271:32:32-p272:64:64-i64:64-i128:128-f80:128-n8:16:32:64-S128"
target triple = "x86_64-pc-linux-gnu"

%struct.FT_CharMapRec_ = type { ptr, i32, i16, i16 }
%struct.PCF_EncRec_ = type { i16, i16, i16, i16, i16, ptr }
%struct.FT_CMapRec_ = type { %struct.FT_CharMapRec_, ptr }
%struct.PCF_CMapRec_ = type { %struct.FT_CMapRec_, ptr }

; Function Attrs: nounwind uwtable
define internal i32 @pcf_cmap_char_index(ptr noundef %0, i32 noundef %1) #0 {
  %3 = alloca i32, align 4
  %4 = alloca ptr, align 8
  %5 = alloca i32, align 4
  %6 = alloca ptr, align 8
  %7 = alloca i32, align 4
  %8 = alloca i32, align 4
  %9 = alloca i32, align 4
  %10 = alloca i32, align 4
  store ptr %0, ptr %4, align 8
  store i32 %1, ptr %5, align 4
  %11 = load ptr, ptr %4, align 8
  %12 = getelementptr inbounds %struct.PCF_CMapRec_, ptr %11, i32 0, i32 1
  %13 = load ptr, ptr %12, align 8
  store ptr %13, ptr %6, align 8
  %14 = load i32, ptr %5, align 4
  %15 = lshr i32 %14, 8
  %16 = load ptr, ptr %6, align 8
  %17 = getelementptr inbounds %struct.PCF_EncRec_, ptr %16, i32 0, i32 2
  %18 = load i16, ptr %17, align 4
  %19 = zext i16 %18 to i32
  %20 = sub i32 %15, %19
  store i32 %20, ptr %7, align 4
  %21 = load i32, ptr %5, align 4
  %22 = and i32 %21, 255
  %23 = load ptr, ptr %6, align 8
  %24 = getelementptr inbounds %struct.PCF_EncRec_, ptr %23, i32 0, i32 0
  %25 = load i16, ptr %24, align 8
  %26 = zext i16 %25 to i32
  %27 = sub i32 %22, %26
  store i32 %27, ptr %8, align 4
  %28 = load ptr, ptr %6, align 8
  %29 = getelementptr inbounds %struct.PCF_EncRec_, ptr %28, i32 0, i32 3
  %30 = load i16, ptr %29, align 2
  %31 = zext i16 %30 to i32
  %32 = load ptr, ptr %6, align 8
  %33 = getelementptr inbounds %struct.PCF_EncRec_, ptr %32, i32 0, i32 2
  %34 = load i16, ptr %33, align 4
  %35 = zext i16 %34 to i32
  %36 = sub nsw i32 %31, %35
  %37 = add nsw i32 %36, 1
  store i32 %37, ptr %9, align 4
  %38 = load ptr, ptr %6, align 8
  %39 = getelementptr inbounds %struct.PCF_EncRec_, ptr %38, i32 0, i32 1
  %40 = load i16, ptr %39, align 2
  %41 = zext i16 %40 to i32
  %42 = load ptr, ptr %6, align 8
  %43 = getelementptr inbounds %struct.PCF_EncRec_, ptr %42, i32 0, i32 0
  %44 = load i16, ptr %43, align 8
  %45 = zext i16 %44 to i32
  %46 = sub nsw i32 %41, %45
  %47 = add nsw i32 %46, 1
  store i32 %47, ptr %10, align 4
  %48 = load i32, ptr %7, align 4
  %49 = load i32, ptr %9, align 4
  %50 = icmp uge i32 %48, %49
  br i1 %50, label %55, label %51

51:                                               ; preds = %2
  %52 = load i32, ptr %8, align 4
  %53 = load i32, ptr %10, align 4
  %54 = icmp uge i32 %52, %53
  br i1 %54, label %55, label %56

55:                                               ; preds = %51, %2
  store i32 0, ptr %3, align 4
  br label %69

56:                                               ; preds = %51
  %57 = load ptr, ptr %6, align 8
  %58 = getelementptr inbounds %struct.PCF_EncRec_, ptr %57, i32 0, i32 5
  %59 = load ptr, ptr %58, align 8
  %60 = load i32, ptr %7, align 4
  %61 = load i32, ptr %10, align 4
  %62 = mul i32 %60, %61
  %63 = load i32, ptr %8, align 4
  %64 = add i32 %62, %63
  %65 = zext i32 %64 to i64
  %66 = getelementptr inbounds i16, ptr %59, i64 %65
  %67 = load i16, ptr %66, align 2
  %68 = zext i16 %67 to i32
  store i32 %68, ptr %3, align 4
  br label %69

69:                                               ; preds = %56, %55
  %70 = load i32, ptr %3, align 4
  ret i32 %70
}