; Function Attrs: mustprogress nofree norecurse nosync nounwind willreturn memory(read, inaccessiblemem: none) uwtable
define internal range(i32 0, 65536) i32 @pcf_cmap_char_index(ptr nocapture noundef readonly %0, i32 noundef %1) #10 {
  %3 = getelementptr inbounds i8, ptr %0, i64 24
  %4 = load ptr, ptr %3, align 8
  %5 = lshr i32 %1, 8
  %6 = getelementptr inbounds i8, ptr %4, i64 4
  %7 = load i16, ptr %6, align 4
  %8 = zext i16 %7 to i32
  %9 = sub nsw i32 %5, %8
  %10 = and i32 %1, 255
  %11 = load i16, ptr %4, align 8
  %12 = zext i16 %11 to i32
  %13 = sub nsw i32 %10, %12
  %14 = getelementptr inbounds i8, ptr %4, i64 6
  %15 = load i16, ptr %14, align 2
  %16 = zext i16 %15 to i32
  %reass.sub = sub nsw i32 %16, %8
  %17 = add nsw i32 %reass.sub, 1
  %18 = getelementptr inbounds i8, ptr %4, i64 2
  %19 = load i16, ptr %18, align 2
  %20 = zext i16 %19 to i32
  %21 = sub nsw i32 %20, %12
  %22 = add nsw i32 %21, 1
  %.not = icmp ult i32 %9, %17
  %.not20 = icmp ult i32 %13, %22
  %or.cond = select i1 %.not, i1 %.not20, i1 false
  br i1 %or.cond, label %23, label %32

23:                                               ; preds = %2
  %24 = getelementptr inbounds i8, ptr %4, i64 16
  %25 = load ptr, ptr %24, align 8
  %26 = mul i32 %22, %9
  %27 = add i32 %26, %13
  %28 = zext i32 %27 to i64
  %29 = getelementptr inbounds i16, ptr %25, i64 %28
  %30 = load i16, ptr %29, align 2
  %31 = zext i16 %30 to i32
  br label %32

32:                                               ; preds = %2, %23
  %.0 = phi i32 [ %31, %23 ], [ 0, %2 ]
  ret i32 %.0
}